; Function Attrs: mustprogress uwtable
define void @_ZN17RtpAnalysisDialog21singleCheckboxChangedEi(ptr noundef nonnull align 8 dereferenceable(328) %0, i32 noundef %1) local_unnamed_addr #0 align 2 personality ptr @__gxx_personality_v0 {
  %3 = tail call noundef ptr @_ZNK7QObject6senderEv(ptr noundef nonnull align 8 dereferenceable(16) %0)
  %4 = getelementptr inbounds i8, ptr %0, i64 152
  %5 = getelementptr inbounds i8, ptr %0, i64 168
  %6 = load i64, ptr %5, align 8
  %7 = icmp sgt i64 %6, 0
  br i1 %7, label %.lr.ph, label %.loopexit

.lr.ph:                                           ; preds = %2
  %8 = getelementptr inbounds i8, ptr %0, i64 160
  br label %14

9:                                                ; preds = %32
  %10 = add i32 %.019, 1
  %11 = sext i32 %10 to i64
  %12 = load i64, ptr %5, align 8
  %13 = icmp sgt i64 %12, %11
  br i1 %13, label %14, label %.loopexit, !llvm.loop !28

14:                                               ; preds = %.lr.ph, %9
  %15 = phi i64 [ 0, %.lr.ph ], [ %11, %9 ]
  %.019 = phi i32 [ 0, %.lr.ph ], [ %10, %9 ]
  %16 = load ptr, ptr %4, align 8
  %.not.i.i.i.i = icmp eq ptr %16, null
  br i1 %.not.i.i.i.i, label %_ZN5QListIP10tab_info_tE6detachEv.exit.i, label %_ZNK17QArrayDataPointerIP10tab_info_tE11needsDetachEv.exit.i.i.i

_ZNK17QArrayDataPointerIP10tab_info_tE11needsDetachEv.exit.i.i.i: ; preds = %14
  %17 = load atomic i32, ptr %16 monotonic, align 4
  %18 = icmp sgt i32 %17, 1
  br i1 %18, label %_ZN5QListIP10tab_info_tE6detachEv.exit.i, label %_ZNK17QArrayDataPointerIP10tab_info_tE11needsDetachEv.exit.i.i.i.i

_ZN5QListIP10tab_info_tE6detachEv.exit.i:         ; preds = %_ZNK17QArrayDataPointerIP10tab_info_tE11needsDetachEv.exit.i.i.i, %14
  tail call void @_ZN17QArrayDataPointerIP10tab_info_tE17reallocateAndGrowEN10QArrayData14GrowthPositionExPS2_(ptr noundef nonnull align 8 dereferenceable(24) %4, i32 noundef 0, i64 noundef 0, ptr noundef null)
  %.pre.i = load ptr, ptr %4, align 8
  %.not.i.i.i.i.i = icmp eq ptr %.pre.i, null
  br i1 %.not.i.i.i.i.i, label %_ZNK17QArrayDataPointerIP10tab_info_tE11needsDetachEv.exit.thread.i.i.i.i, label %_ZNK17QArrayDataPointerIP10tab_info_tE11needsDetachEv.exit.i.i.i.i

_ZNK17QArrayDataPointerIP10tab_info_tE11needsDetachEv.exit.i.i.i.i: ; preds = %_ZN5QListIP10tab_info_tE6detachEv.exit.i, %_ZNK17QArrayDataPointerIP10tab_info_tE11needsDetachEv.exit.i.i.i
  %19 = phi ptr [ %.pre.i, %_ZN5QListIP10tab_info_tE6detachEv.exit.i ], [ %16, %_ZNK17QArrayDataPointerIP10tab_info_tE11needsDetachEv.exit.i.i.i ]
  %20 = load atomic i32, ptr %19 monotonic, align 4
  %21 = icmp sgt i32 %20, 1
  br i1 %21, label %_ZNK17QArrayDataPointerIP10tab_info_tE11needsDetachEv.exit.thread.i.i.i.i, label %_ZN5QListIP10tab_info_tEixEx.exit

_ZNK17QArrayDataPointerIP10tab_info_tE11needsDetachEv.exit.thread.i.i.i.i: ; preds = %_ZNK17QArrayDataPointerIP10tab_info_tE11needsDetachEv.exit.i.i.i.i, %_ZN5QListIP10tab_info_tE6detachEv.exit.i
  tail call void @_ZN17QArrayDataPointerIP10tab_info_tE17reallocateAndGrowEN10QArrayData14GrowthPositionExPS2_(ptr noundef nonnull align 8 dereferenceable(24) %4, i32 noundef 0, i64 noundef 0, ptr noundef null)
  br label %_ZN5QListIP10tab_info_tEixEx.exit

_ZN5QListIP10tab_info_tEixEx.exit:                ; preds = %_ZNK17QArrayDataPointerIP10tab_info_tE11needsDetachEv.exit.i.i.i.i, %_ZNK17QArrayDataPointerIP10tab_info_tE11needsDetachEv.exit.thread.i.i.i.i
  %22 = load ptr, ptr %8, align 8
  %23 = getelementptr ptr, ptr %22, i64 %15
  %24 = load ptr, ptr %23, align 8
  %25 = getelementptr inbounds i8, ptr %24, i64 7400
  %26 = load ptr, ptr %25, align 8
  %27 = icmp eq ptr %3, %26
  br i1 %27, label %.loopexit.sink.split, label %28

28:                                               ; preds = %_ZN5QListIP10tab_info_tEixEx.exit
  %29 = getelementptr inbounds i8, ptr %24, i64 7408
  %30 = load ptr, ptr %29, align 8
  %31 = icmp eq ptr %3, %30
  br i1 %31, label %.loopexit.sink.split, label %32

32:                                               ; preds = %28
  %33 = getelementptr inbounds i8, ptr %24, i64 7416
  %34 = load ptr, ptr %33, align 8
  %35 = icmp eq ptr %3, %34
  br i1 %35, label %.loopexit.sink.split, label %9

.loopexit.sink.split:                             ; preds = %32, %28, %_ZN5QListIP10tab_info_tEixEx.exit
  %.sink = phi i64 [ 7360, %_ZN5QListIP10tab_info_tEixEx.exit ], [ 7368, %28 ], [ 7376, %32 ]
  %36 = getelementptr inbounds i8, ptr %24, i64 %.sink
  %37 = load ptr, ptr %36, align 8
  %38 = icmp ne i32 %1, 0
  tail call void @_ZN12QCPLayerable10setVisibleEb(ptr noundef nonnull align 8 dereferenceable(57) %37, i1 noundef zeroext %38)
  tail call void @_ZN17RtpAnalysisDialog11updateGraphEv(ptr noundef nonnull align 8 dereferenceable(328) %0)
  br label %.loopexit

.loopexit:                                        ; preds = %9, %.loopexit.sink.split, %2
  ret void
}